; Function Attrs: nounwind uwtable
define void @lv_chart_hide_series(ptr noundef %0, ptr noundef %1, i1 noundef zeroext %2) local_unnamed_addr #0 {
  %.not = icmp eq ptr %1, null
  br i1 %.not, label %.preheader, label %4

.preheader:                                       ; preds = %3, %.preheader
  br label %.preheader

4:                                                ; preds = %3
  %5 = getelementptr inbounds nuw i8, ptr %1, i64 24
  %6 = zext i1 %2 to i8
  %7 = load i8, ptr %5, align 8
  %8 = and i8 %7, -2
  %9 = or disjoint i8 %8, %6
  store i8 %9, ptr %5, align 8
  tail call void @lv_obj_invalidate(ptr noundef %0) #8
  ret void
}